; Function Attrs: mustprogress uwtable
define noundef ptr @_ZNK6icu_7716ICULocaleService3getERKNS_6LocaleER10UErrorCode(ptr noundef nonnull align 8 dereferenceable(408) %0, ptr noundef nonnull readonly align 8 captures(none) dereferenceable(217) %1, ptr noundef nonnull align 4 dereferenceable(4) %2) local_unnamed_addr #1 align 2 personality ptr @__gxx_personality_v0 {
  %4 = alloca %"class.icu_77::UnicodeString", align 8
  %5 = load i32, ptr %2, align 4, !tbaa !13
  %6 = icmp slt i32 %5, 1
  br i1 %6, label %7, label %_ZNK6icu_7716ICULocaleService3getERKNS_6LocaleEiPS1_R10UErrorCode.exit

7:                                                ; preds = %3
  call void @llvm.lifetime.start.p0(i64 64, ptr nonnull %4) #15
  %8 = getelementptr inbounds nuw i8, ptr %1, i64 40
  %9 = load ptr, ptr %8, align 8, !tbaa !18
  call void @_ZN6icu_7713UnicodeStringC1EPKciNS0_10EInvariantE(ptr noundef nonnull align 8 dereferenceable(64) %4, ptr noundef %9, i32 noundef -1, i32 noundef 0)
  %10 = getelementptr inbounds nuw i8, ptr %4, i64 8
  %11 = load i16, ptr %10, align 8, !tbaa !17
  %12 = and i16 %11, 1
  %.not26.i = icmp eq i16 %12, 0
  br i1 %.not26.i, label %14, label %13

13:                                               ; preds = %7
  store i32 7, ptr %2, align 4, !tbaa !13
  br label %28

14:                                               ; preds = %7
  %15 = load ptr, ptr %0, align 8, !tbaa !15
  %16 = getelementptr inbounds nuw i8, ptr %15, i64 184
  %17 = load ptr, ptr %16, align 8
  %18 = invoke noundef ptr %17(ptr noundef nonnull align 8 dereferenceable(408) %0, ptr noundef nonnull %4, i32 noundef -1, ptr noundef nonnull align 4 dereferenceable(4) %2)
          to label %19 unwind label %22

19:                                               ; preds = %14
  %.not27.i = icmp eq ptr %18, null
  br i1 %.not27.i, label %28, label %20

20:                                               ; preds = %19
  %21 = invoke noundef ptr @_ZNK6icu_7710ICUService6getKeyERNS_13ICUServiceKeyER10UErrorCode(ptr noundef nonnull align 8 dereferenceable(408) %0, ptr noundef nonnull align 8 dereferenceable(72) %18, ptr noundef nonnull align 4 dereferenceable(4) %2)
          to label %24 unwind label %22

22:                                               ; preds = %20, %14
  %23 = landingpad { ptr, i32 }
          cleanup
  call void @_ZN6icu_7713UnicodeStringD1Ev(ptr noundef nonnull align 8 dereferenceable(64) %4) #15
  call void @llvm.lifetime.end.p0(i64 64, ptr nonnull %4) #15
  resume { ptr, i32 } %23

24:                                               ; preds = %20
  %25 = load ptr, ptr %18, align 8, !tbaa !15
  %26 = getelementptr inbounds nuw i8, ptr %25, i64 8
  %27 = load ptr, ptr %26, align 8
  call void %27(ptr noundef nonnull align 8 dereferenceable(72) %18) #15
  br label %28

28:                                               ; preds = %24, %19, %13
  %.022.i = phi ptr [ null, %13 ], [ %21, %24 ], [ null, %19 ]
  call void @_ZN6icu_7713UnicodeStringD1Ev(ptr noundef nonnull align 8 dereferenceable(64) %4) #15
  call void @llvm.lifetime.end.p0(i64 64, ptr nonnull %4) #15
  br label %_ZNK6icu_7716ICULocaleService3getERKNS_6LocaleEiPS1_R10UErrorCode.exit

_ZNK6icu_7716ICULocaleService3getERKNS_6LocaleEiPS1_R10UErrorCode.exit: ; preds = %3, %28
  %.0.i = phi ptr [ %.022.i, %28 ], [ null, %3 ]
  ret ptr %.0.i
}